target datalayout = "e-m:e-p270:32:32-p271:32:32-p272:64:64-i64:64-i128:128-f80:128-n8:16:32:64-S128"
target triple = "x86_64-pc-linux-gnu"

; Function Attrs: nounwind uwtable
define void @ff_ivi_col_slant8(ptr noundef %0, ptr noundef %1, i64 noundef %2, ptr noundef %3) #0 {
  %5 = alloca ptr, align 8
  %6 = alloca ptr, align 8
  %7 = alloca i64, align 8
  %8 = alloca ptr, align 8
  %9 = alloca i32, align 4
  %10 = alloca i32, align 4
  %11 = alloca i32, align 4
  %12 = alloca i32, align 4
  %13 = alloca i32, align 4
  %14 = alloca i32, align 4
  %15 = alloca i32, align 4
  %16 = alloca i32, align 4
  %17 = alloca i32, align 4
  %18 = alloca i32, align 4
  %19 = alloca i32, align 4
  %20 = alloca i32, align 4
  %21 = alloca i32, align 4
  store ptr %0, ptr %5, align 8, !tbaa !40
  store ptr %1, ptr %6, align 8, !tbaa !30
  store i64 %2, ptr %7, align 8, !tbaa !11
  store ptr %3, ptr %8, align 8, !tbaa !9
  call void @llvm.lifetime.start.p0(i64 4, ptr %9) #4
  call void @llvm.lifetime.start.p0(i64 4, ptr %10) #4
  call void @llvm.lifetime.start.p0(i64 4, ptr %11) #4
  call void @llvm.lifetime.start.p0(i64 4, ptr %12) #4
  call void @llvm.lifetime.start.p0(i64 4, ptr %13) #4
  call void @llvm.lifetime.start.p0(i64 4, ptr %14) #4
  call void @llvm.lifetime.start.p0(i64 4, ptr %15) #4
  call void @llvm.lifetime.start.p0(i64 4, ptr %16) #4
  call void @llvm.lifetime.start.p0(i64 4, ptr %17) #4
  call void @llvm.lifetime.start.p0(i64 4, ptr %18) #4
  call void @llvm.lifetime.start.p0(i64 4, ptr %19) #4
  call void @llvm.lifetime.start.p0(i64 4, ptr %20) #4
  call void @llvm.lifetime.start.p0(i64 4, ptr %21) #4
  %22 = load i64, ptr %7, align 8, !tbaa !11
  %23 = shl i64 %22, 1
  %24 = trunc i64 %23 to i32
  store i32 %24, ptr %10, align 4, !tbaa !13
  %25 = load i64, ptr %7, align 8, !tbaa !11
  %26 = shl i64 %25, 2
  %27 = trunc i64 %26 to i32
  store i32 %27, ptr %11, align 4, !tbaa !13
  %28 = load i64, ptr %7, align 8, !tbaa !11
  %29 = shl i64 %28, 3
  %30 = trunc i64 %29 to i32
  store i32 %30, ptr %12, align 4, !tbaa !13
  store i32 0, ptr %9, align 4, !tbaa !13
  br label %31

31:                                               ; preds = %312, %4
  %32 = load i32, ptr %9, align 4, !tbaa !13
  %33 = icmp slt i32 %32, 8
  br i1 %33, label %34, label %315

34:                                               ; preds = %31
  %35 = load ptr, ptr %8, align 8, !tbaa !9
  %36 = load i32, ptr %9, align 4, !tbaa !13
  %37 = sext i32 %36 to i64
  %38 = getelementptr inbounds i8, ptr %35, i64 %37
  %39 = load i8, ptr %38, align 1, !tbaa !34
  %40 = icmp ne i8 %39, 0
  br i1 %40, label %41, label %269

41:                                               ; preds = %34
  %42 = load ptr, ptr %5, align 8, !tbaa !40
  %43 = getelementptr inbounds i32, ptr %42, i64 24
  %44 = load i32, ptr %43, align 4, !tbaa !13
  %45 = load ptr, ptr %5, align 8, !tbaa !40
  %46 = getelementptr inbounds i32, ptr %45, i64 8
  %47 = load i32, ptr %46, align 4, !tbaa !13
  %48 = mul nsw i32 %47, 4
  %49 = load ptr, ptr %5, align 8, !tbaa !40
  %50 = getelementptr inbounds i32, ptr %49, i64 24
  %51 = load i32, ptr %50, align 4, !tbaa !13
  %52 = sub nsw i32 %48, %51
  %53 = add nsw i32 %52, 4
  %54 = ashr i32 %53, 3
  %55 = add nsw i32 %44, %54
  store i32 %55, ptr %13, align 4, !tbaa !13
  %56 = load ptr, ptr %5, align 8, !tbaa !40
  %57 = getelementptr inbounds i32, ptr %56, i64 8
  %58 = load i32, ptr %57, align 4, !tbaa !13
  %59 = load ptr, ptr %5, align 8, !tbaa !40
  %60 = getelementptr inbounds i32, ptr %59, i64 8
  %61 = load i32, ptr %60, align 4, !tbaa !13
  %62 = sub nsw i32 0, %61
  %63 = load ptr, ptr %5, align 8, !tbaa !40
  %64 = getelementptr inbounds i32, ptr %63, i64 24
  %65 = load i32, ptr %64, align 4, !tbaa !13
  %66 = mul nsw i32 %65, 4
  %67 = sub nsw i32 %62, %66
  %68 = add nsw i32 %67, 4
  %69 = ashr i32 %68, 3
  %70 = add nsw i32 %58, %69
  store i32 %70, ptr %18, align 4, !tbaa !13
  %71 = load i32, ptr %13, align 4, !tbaa !13
  store i32 %71, ptr %17, align 4, !tbaa !13
  %72 = load ptr, ptr %5, align 8, !tbaa !40
  %73 = getelementptr inbounds i32, ptr %72, i64 0
  %74 = load i32, ptr %73, align 4, !tbaa !13
  %75 = load i32, ptr %18, align 4, !tbaa !13
  %76 = sub nsw i32 %74, %75
  store i32 %76, ptr %13, align 4, !tbaa !13
  %77 = load ptr, ptr %5, align 8, !tbaa !40
  %78 = getelementptr inbounds i32, ptr %77, i64 0
  %79 = load i32, ptr %78, align 4, !tbaa !13
  %80 = load i32, ptr %18, align 4, !tbaa !13
  %81 = add nsw i32 %79, %80
  store i32 %81, ptr %14, align 4, !tbaa !13
  %82 = load i32, ptr %13, align 4, !tbaa !13
  store i32 %82, ptr %18, align 4, !tbaa !13
  %83 = load ptr, ptr %5, align 8, !tbaa !40
  %84 = getelementptr inbounds i32, ptr %83, i64 32
  %85 = load i32, ptr %84, align 4, !tbaa !13
  %86 = load ptr, ptr %5, align 8, !tbaa !40
  %87 = getelementptr inbounds i32, ptr %86, i64 40
  %88 = load i32, ptr %87, align 4, !tbaa !13
  %89 = sub nsw i32 %85, %88
  store i32 %89, ptr %13, align 4, !tbaa !13
  %90 = load ptr, ptr %5, align 8, !tbaa !40
  %91 = getelementptr inbounds i32, ptr %90, i64 32
  %92 = load i32, ptr %91, align 4, !tbaa !13
  %93 = load ptr, ptr %5, align 8, !tbaa !40
  %94 = getelementptr inbounds i32, ptr %93, i64 40
  %95 = load i32, ptr %94, align 4, !tbaa !13
  %96 = add nsw i32 %92, %95
  store i32 %96, ptr %15, align 4, !tbaa !13
  %97 = load i32, ptr %13, align 4, !tbaa !13
  store i32 %97, ptr %19, align 4, !tbaa !13
  %98 = load ptr, ptr %5, align 8, !tbaa !40
  %99 = getelementptr inbounds i32, ptr %98, i64 56
  %100 = load i32, ptr %99, align 4, !tbaa !13
  %101 = load ptr, ptr %5, align 8, !tbaa !40
  %102 = getelementptr inbounds i32, ptr %101, i64 48
  %103 = load i32, ptr %102, align 4, !tbaa !13
  %104 = sub nsw i32 %100, %103
  store i32 %104, ptr %13, align 4, !tbaa !13
  %105 = load ptr, ptr %5, align 8, !tbaa !40
  %106 = getelementptr inbounds i32, ptr %105, i64 56
  %107 = load i32, ptr %106, align 4, !tbaa !13
  %108 = load ptr, ptr %5, align 8, !tbaa !40
  %109 = getelementptr inbounds i32, ptr %108, i64 48
  %110 = load i32, ptr %109, align 4, !tbaa !13
  %111 = add nsw i32 %107, %110
  store i32 %111, ptr %20, align 4, !tbaa !13
  %112 = load i32, ptr %13, align 4, !tbaa !13
  store i32 %112, ptr %16, align 4, !tbaa !13
  %113 = load i32, ptr %17, align 4, !tbaa !13
  %114 = load ptr, ptr %5, align 8, !tbaa !40
  %115 = getelementptr inbounds i32, ptr %114, i64 16
  %116 = load i32, ptr %115, align 4, !tbaa !13
  %117 = sub nsw i32 %113, %116
  store i32 %117, ptr %13, align 4, !tbaa !13
  %118 = load i32, ptr %17, align 4, !tbaa !13
  %119 = load ptr, ptr %5, align 8, !tbaa !40
  %120 = getelementptr inbounds i32, ptr %119, i64 16
  %121 = load i32, ptr %120, align 4, !tbaa !13
  %122 = add nsw i32 %118, %121
  store i32 %122, ptr %17, align 4, !tbaa !13
  %123 = load i32, ptr %13, align 4, !tbaa !13
  store i32 %123, ptr %21, align 4, !tbaa !13
  %124 = load i32, ptr %14, align 4, !tbaa !13
  %125 = load i32, ptr %15, align 4, !tbaa !13
  %126 = sub nsw i32 %124, %125
  store i32 %126, ptr %13, align 4, !tbaa !13
  %127 = load i32, ptr %14, align 4, !tbaa !13
  %128 = load i32, ptr %15, align 4, !tbaa !13
  %129 = add nsw i32 %127, %128
  store i32 %129, ptr %14, align 4, !tbaa !13
  %130 = load i32, ptr %13, align 4, !tbaa !13
  store i32 %130, ptr %15, align 4, !tbaa !13
  %131 = load i32, ptr %17, align 4, !tbaa !13
  %132 = load i32, ptr %16, align 4, !tbaa !13
  %133 = mul nsw i32 %132, 2
  %134 = add nsw i32 %131, %133
  %135 = add nsw i32 %134, 2
  %136 = ashr i32 %135, 2
  %137 = load i32, ptr %17, align 4, !tbaa !13
  %138 = add nsw i32 %136, %137
  store i32 %138, ptr %13, align 4, !tbaa !13
  %139 = load i32, ptr %17, align 4, !tbaa !13
  %140 = mul nsw i32 %139, 2
  %141 = load i32, ptr %16, align 4, !tbaa !13
  %142 = sub nsw i32 %140, %141
  %143 = add nsw i32 %142, 2
  %144 = ashr i32 %143, 2
  %145 = load i32, ptr %16, align 4, !tbaa !13
  %146 = sub nsw i32 %144, %145
  store i32 %146, ptr %16, align 4, !tbaa !13
  %147 = load i32, ptr %13, align 4, !tbaa !13
  store i32 %147, ptr %17, align 4, !tbaa !13
  %148 = load i32, ptr %18, align 4, !tbaa !13
  %149 = load i32, ptr %19, align 4, !tbaa !13
  %150 = sub nsw i32 %148, %149
  store i32 %150, ptr %13, align 4, !tbaa !13
  %151 = load i32, ptr %18, align 4, !tbaa !13
  %152 = load i32, ptr %19, align 4, !tbaa !13
  %153 = add nsw i32 %151, %152
  store i32 %153, ptr %18, align 4, !tbaa !13
  %154 = load i32, ptr %13, align 4, !tbaa !13
  store i32 %154, ptr %19, align 4, !tbaa !13
  %155 = load i32, ptr %21, align 4, !tbaa !13
  %156 = load i32, ptr %20, align 4, !tbaa !13
  %157 = mul nsw i32 %156, 2
  %158 = add nsw i32 %155, %157
  %159 = add nsw i32 %158, 2
  %160 = ashr i32 %159, 2
  %161 = load i32, ptr %21, align 4, !tbaa !13
  %162 = add nsw i32 %160, %161
  store i32 %162, ptr %13, align 4, !tbaa !13
  %163 = load i32, ptr %21, align 4, !tbaa !13
  %164 = mul nsw i32 %163, 2
  %165 = load i32, ptr %20, align 4, !tbaa !13
  %166 = sub nsw i32 %164, %165
  %167 = add nsw i32 %166, 2
  %168 = ashr i32 %167, 2
  %169 = load i32, ptr %20, align 4, !tbaa !13
  %170 = sub nsw i32 %168, %169
  store i32 %170, ptr %20, align 4, !tbaa !13
  %171 = load i32, ptr %13, align 4, !tbaa !13
  store i32 %171, ptr %21, align 4, !tbaa !13
  %172 = load i32, ptr %14, align 4, !tbaa !13
  %173 = load i32, ptr %17, align 4, !tbaa !13
  %174 = sub nsw i32 %172, %173
  store i32 %174, ptr %13, align 4, !tbaa !13
  %175 = load i32, ptr %14, align 4, !tbaa !13
  %176 = load i32, ptr %17, align 4, !tbaa !13
  %177 = add nsw i32 %175, %176
  store i32 %177, ptr %14, align 4, !tbaa !13
  %178 = load i32, ptr %13, align 4, !tbaa !13
  store i32 %178, ptr %17, align 4, !tbaa !13
  %179 = load i32, ptr %15, align 4, !tbaa !13
  %180 = load i32, ptr %16, align 4, !tbaa !13
  %181 = sub nsw i32 %179, %180
  store i32 %181, ptr %13, align 4, !tbaa !13
  %182 = load i32, ptr %15, align 4, !tbaa !13
  %183 = load i32, ptr %16, align 4, !tbaa !13
  %184 = add nsw i32 %182, %183
  store i32 %184, ptr %15, align 4, !tbaa !13
  %185 = load i32, ptr %13, align 4, !tbaa !13
  store i32 %185, ptr %16, align 4, !tbaa !13
  %186 = load i32, ptr %18, align 4, !tbaa !13
  %187 = load i32, ptr %21, align 4, !tbaa !13
  %188 = sub nsw i32 %186, %187
  store i32 %188, ptr %13, align 4, !tbaa !13
  %189 = load i32, ptr %18, align 4, !tbaa !13
  %190 = load i32, ptr %21, align 4, !tbaa !13
  %191 = add nsw i32 %189, %190
  store i32 %191, ptr %18, align 4, !tbaa !13
  %192 = load i32, ptr %13, align 4, !tbaa !13
  store i32 %192, ptr %21, align 4, !tbaa !13
  %193 = load i32, ptr %19, align 4, !tbaa !13
  %194 = load i32, ptr %20, align 4, !tbaa !13
  %195 = sub nsw i32 %193, %194
  store i32 %195, ptr %13, align 4, !tbaa !13
  %196 = load i32, ptr %19, align 4, !tbaa !13
  %197 = load i32, ptr %20, align 4, !tbaa !13
  %198 = add nsw i32 %196, %197
  store i32 %198, ptr %19, align 4, !tbaa !13
  %199 = load i32, ptr %13, align 4, !tbaa !13
  store i32 %199, ptr %20, align 4, !tbaa !13
  %200 = load i32, ptr %14, align 4, !tbaa !13
  %201 = add nsw i32 %200, 1
  %202 = ashr i32 %201, 1
  %203 = trunc i32 %202 to i16
  %204 = load ptr, ptr %6, align 8, !tbaa !30
  %205 = getelementptr inbounds i16, ptr %204, i64 0
  store i16 %203, ptr %205, align 2, !tbaa !32
  %206 = load i32, ptr %15, align 4, !tbaa !13
  %207 = add nsw i32 %206, 1
  %208 = ashr i32 %207, 1
  %209 = trunc i32 %208 to i16
  %210 = load ptr, ptr %6, align 8, !tbaa !30
  %211 = load i64, ptr %7, align 8, !tbaa !11
  %212 = getelementptr inbounds i16, ptr %210, i64 %211
  store i16 %209, ptr %212, align 2, !tbaa !32
  %213 = load i32, ptr %16, align 4, !tbaa !13
  %214 = add nsw i32 %213, 1
  %215 = ashr i32 %214, 1
  %216 = trunc i32 %215 to i16
  %217 = load ptr, ptr %6, align 8, !tbaa !30
  %218 = load i32, ptr %10, align 4, !tbaa !13
  %219 = sext i32 %218 to i64
  %220 = getelementptr inbounds i16, ptr %217, i64 %219
  store i16 %216, ptr %220, align 2, !tbaa !32
  %221 = load i32, ptr %17, align 4, !tbaa !13
  %222 = add nsw i32 %221, 1
  %223 = ashr i32 %222, 1
  %224 = trunc i32 %223 to i16
  %225 = load ptr, ptr %6, align 8, !tbaa !30
  %226 = load i32, ptr %10, align 4, !tbaa !13
  %227 = sext i32 %226 to i64
  %228 = load i64, ptr %7, align 8, !tbaa !11
  %229 = add nsw i64 %227, %228
  %230 = getelementptr inbounds i16, ptr %225, i64 %229
  store i16 %224, ptr %230, align 2, !tbaa !32
  %231 = load i32, ptr %18, align 4, !tbaa !13
  %232 = add nsw i32 %231, 1
  %233 = ashr i32 %232, 1
  %234 = trunc i32 %233 to i16
  %235 = load ptr, ptr %6, align 8, !tbaa !30
  %236 = load i32, ptr %11, align 4, !tbaa !13
  %237 = sext i32 %236 to i64
  %238 = getelementptr inbounds i16, ptr %235, i64 %237
  store i16 %234, ptr %238, align 2, !tbaa !32
  %239 = load i32, ptr %19, align 4, !tbaa !13
  %240 = add nsw i32 %239, 1
  %241 = ashr i32 %240, 1
  %242 = trunc i32 %241 to i16
  %243 = load ptr, ptr %6, align 8, !tbaa !30
  %244 = load i32, ptr %11, align 4, !tbaa !13
  %245 = sext i32 %244 to i64
  %246 = load i64, ptr %7, align 8, !tbaa !11
  %247 = add nsw i64 %245, %246
  %248 = getelementptr inbounds i16, ptr %243, i64 %247
  store i16 %242, ptr %248, align 2, !tbaa !32
  %249 = load i32, ptr %20, align 4, !tbaa !13
  %250 = add nsw i32 %249, 1
  %251 = ashr i32 %250, 1
  %252 = trunc i32 %251 to i16
  %253 = load ptr, ptr %6, align 8, !tbaa !30
  %254 = load i32, ptr %11, align 4, !tbaa !13
  %255 = load i32, ptr %10, align 4, !tbaa !13
  %256 = add nsw i32 %254, %255
  %257 = sext i32 %256 to i64
  %258 = getelementptr inbounds i16, ptr %253, i64 %257
  store i16 %252, ptr %258, align 2, !tbaa !32
  %259 = load i32, ptr %21, align 4, !tbaa !13
  %260 = add nsw i32 %259, 1
  %261 = ashr i32 %260, 1
  %262 = trunc i32 %261 to i16
  %263 = load ptr, ptr %6, align 8, !tbaa !30
  %264 = load i32, ptr %12, align 4, !tbaa !13
  %265 = sext i32 %264 to i64
  %266 = load i64, ptr %7, align 8, !tbaa !11
  %267 = sub nsw i64 %265, %266
  %268 = getelementptr inbounds i16, ptr %263, i64 %267
  store i16 %262, ptr %268, align 2, !tbaa !32
  br label %307

269:                                              ; preds = %34
  %270 = load ptr, ptr %6, align 8, !tbaa !30
  %271 = load i32, ptr %12, align 4, !tbaa !13
  %272 = sext i32 %271 to i64
  %273 = load i64, ptr %7, align 8, !tbaa !11
  %274 = sub nsw i64 %272, %273
  %275 = getelementptr inbounds i16, ptr %270, i64 %274
  store i16 0, ptr %275, align 2, !tbaa !32
  %276 = load ptr, ptr %6, align 8, !tbaa !30
  %277 = load i32, ptr %11, align 4, !tbaa !13
  %278 = load i32, ptr %10, align 4, !tbaa !13
  %279 = add nsw i32 %277, %278
  %280 = sext i32 %279 to i64
  %281 = getelementptr inbounds i16, ptr %276, i64 %280
  store i16 0, ptr %281, align 2, !tbaa !32
  %282 = load ptr, ptr %6, align 8, !tbaa !30
  %283 = load i32, ptr %11, align 4, !tbaa !13
  %284 = sext i32 %283 to i64
  %285 = load i64, ptr %7, align 8, !tbaa !11
  %286 = add nsw i64 %284, %285
  %287 = getelementptr inbounds i16, ptr %282, i64 %286
  store i16 0, ptr %287, align 2, !tbaa !32
  %288 = load ptr, ptr %6, align 8, !tbaa !30
  %289 = load i32, ptr %11, align 4, !tbaa !13
  %290 = sext i32 %289 to i64
  %291 = getelementptr inbounds i16, ptr %288, i64 %290
  store i16 0, ptr %291, align 2, !tbaa !32
  %292 = load ptr, ptr %6, align 8, !tbaa !30
  %293 = load i32, ptr %10, align 4, !tbaa !13
  %294 = sext i32 %293 to i64
  %295 = load i64, ptr %7, align 8, !tbaa !11
  %296 = add nsw i64 %294, %295
  %297 = getelementptr inbounds i16, ptr %292, i64 %296
  store i16 0, ptr %297, align 2, !tbaa !32
  %298 = load ptr, ptr %6, align 8, !tbaa !30
  %299 = load i32, ptr %10, align 4, !tbaa !13
  %300 = sext i32 %299 to i64
  %301 = getelementptr inbounds i16, ptr %298, i64 %300
  store i16 0, ptr %301, align 2, !tbaa !32
  %302 = load ptr, ptr %6, align 8, !tbaa !30
  %303 = load i64, ptr %7, align 8, !tbaa !11
  %304 = getelementptr inbounds i16, ptr %302, i64 %303
  store i16 0, ptr %304, align 2, !tbaa !32
  %305 = load ptr, ptr %6, align 8, !tbaa !30
  %306 = getelementptr inbounds i16, ptr %305, i64 0
  store i16 0, ptr %306, align 2, !tbaa !32
  br label %307

307:                                              ; preds = %269, %41
  %308 = load ptr, ptr %5, align 8, !tbaa !40
  %309 = getelementptr inbounds nuw i32, ptr %308, i32 1
  store ptr %309, ptr %5, align 8, !tbaa !40
  %310 = load ptr, ptr %6, align 8, !tbaa !30
  %311 = getelementptr inbounds nuw i16, ptr %310, i32 1
  store ptr %311, ptr %6, align 8, !tbaa !30
  br label %312

312:                                              ; preds = %307
  %313 = load i32, ptr %9, align 4, !tbaa !13
  %314 = add nsw i32 %313, 1
  store i32 %314, ptr %9, align 4, !tbaa !13
  br label %31, !llvm.loop !62

315:                                              ; preds = %31
  call void @llvm.lifetime.end.p0(i64 4, ptr %21) #4
  call void @llvm.lifetime.end.p0(i64 4, ptr %20) #4
  call void @llvm.lifetime.end.p0(i64 4, ptr %19) #4
  call void @llvm.lifetime.end.p0(i64 4, ptr %18) #4
  call void @llvm.lifetime.end.p0(i64 4, ptr %17) #4
  call void @llvm.lifetime.end.p0(i64 4, ptr %16) #4
  call void @llvm.lifetime.end.p0(i64 4, ptr %15) #4
  call void @llvm.lifetime.end.p0(i64 4, ptr %14) #4
  call void @llvm.lifetime.end.p0(i64 4, ptr %13) #4
  call void @llvm.lifetime.end.p0(i64 4, ptr %12) #4
  call void @llvm.lifetime.end.p0(i64 4, ptr %11) #4
  call void @llvm.lifetime.end.p0(i64 4, ptr %10) #4
  call void @llvm.lifetime.end.p0(i64 4, ptr %9) #4
  ret void
}