; Function Attrs: nofree norecurse nosync nounwind memory(argmem: readwrite) uwtable
define void @ff_ivi_col_slant8(ptr noundef readonly captures(none) %0, ptr noundef writeonly captures(none) %1, i64 noundef %2, ptr noundef readonly captures(none) %3) local_unnamed_addr #2 {
  %.tr = trunc i64 %2 to i32
  %5 = shl i32 %.tr, 1
  %6 = shl i32 %.tr, 2
  %7 = shl i32 %.tr, 3
  %8 = sext i32 %5 to i64
  %9 = sext i32 %6 to i64
  %sext = mul i64 %2, 25769803776
  %10 = ashr exact i64 %sext, 31
  %11 = sext i32 %7 to i64
  %12 = sub nsw i64 %11, %2
  br label %13

13:                                               ; preds = %4, %112
  %indvars.iv = phi i64 [ 0, %4 ], [ %indvars.iv.next, %112 ]
  %.0141 = phi ptr [ %0, %4 ], [ %113, %112 ]
  %.0125140 = phi ptr [ %1, %4 ], [ %114, %112 ]
  %14 = getelementptr inbounds nuw i8, ptr %3, i64 %indvars.iv
  %15 = load i8, ptr %14, align 1, !tbaa !28
  %.not = icmp eq i8 %15, 0
  br i1 %.not, label %104, label %16

16:                                               ; preds = %13
  %17 = getelementptr inbounds nuw i8, ptr %.0141, i64 96
  %18 = load i32, ptr %17, align 4, !tbaa !34
  %19 = getelementptr inbounds nuw i8, ptr %.0141, i64 32
  %20 = load i32, ptr %19, align 4, !tbaa !34
  %21 = shl nsw i32 %20, 2
  %reass.sub = sub i32 %21, %18
  %22 = add i32 %reass.sub, 4
  %23 = ashr i32 %22, 3
  %24 = add nsw i32 %23, %18
  %.neg = mul i32 %18, -4
  %reass.sub142 = sub i32 %.neg, %20
  %25 = add i32 %reass.sub142, 4
  %26 = ashr i32 %25, 3
  %27 = add nsw i32 %26, %20
  %28 = load i32, ptr %.0141, align 4, !tbaa !34
  %29 = sub nsw i32 %28, %27
  %30 = add nsw i32 %27, %28
  %31 = getelementptr inbounds nuw i8, ptr %.0141, i64 128
  %32 = load i32, ptr %31, align 4, !tbaa !34
  %33 = getelementptr inbounds nuw i8, ptr %.0141, i64 160
  %34 = load i32, ptr %33, align 4, !tbaa !34
  %35 = sub nsw i32 %32, %34
  %36 = add nsw i32 %34, %32
  %37 = getelementptr inbounds nuw i8, ptr %.0141, i64 224
  %38 = load i32, ptr %37, align 4, !tbaa !34
  %39 = getelementptr inbounds nuw i8, ptr %.0141, i64 192
  %40 = load i32, ptr %39, align 4, !tbaa !34
  %41 = sub nsw i32 %38, %40
  %42 = add nsw i32 %40, %38
  %43 = getelementptr inbounds nuw i8, ptr %.0141, i64 64
  %44 = load i32, ptr %43, align 4, !tbaa !34
  %45 = sub nsw i32 %24, %44
  %46 = add nsw i32 %44, %24
  %47 = sub nsw i32 %30, %36
  %48 = add nsw i32 %30, %36
  %49 = shl nsw i32 %41, 1
  %50 = add i32 %49, 2
  %51 = add i32 %50, %46
  %52 = ashr i32 %51, 2
  %53 = add nsw i32 %52, %46
  %54 = shl nsw i32 %46, 1
  %reass.sub143 = sub i32 %54, %41
  %55 = add i32 %reass.sub143, 2
  %56 = ashr i32 %55, 2
  %57 = sub nsw i32 %56, %41
  %58 = sub nsw i32 %29, %35
  %59 = add nsw i32 %29, %35
  %60 = shl nsw i32 %42, 1
  %61 = add i32 %60, 2
  %62 = add i32 %61, %45
  %63 = ashr i32 %62, 2
  %64 = add nsw i32 %63, %45
  %65 = shl nsw i32 %45, 1
  %reass.sub144 = sub i32 %65, %42
  %66 = add i32 %reass.sub144, 2
  %67 = ashr i32 %66, 2
  %68 = sub nsw i32 %67, %42
  %69 = add i32 %48, 1
  %70 = add i32 %69, %53
  %71 = lshr i32 %70, 1
  %72 = trunc i32 %71 to i16
  store i16 %72, ptr %.0125140, align 2, !tbaa !27
  %73 = add i32 %47, 1
  %74 = add i32 %73, %57
  %75 = lshr i32 %74, 1
  %76 = trunc i32 %75 to i16
  %77 = getelementptr inbounds i16, ptr %.0125140, i64 %2
  store i16 %76, ptr %77, align 2, !tbaa !27
  %78 = sub i32 %73, %57
  %79 = lshr i32 %78, 1
  %80 = trunc i32 %79 to i16
  %81 = getelementptr inbounds i16, ptr %.0125140, i64 %8
  store i16 %80, ptr %81, align 2, !tbaa !27
  %82 = sub i32 %69, %53
  %83 = lshr i32 %82, 1
  %84 = trunc i32 %83 to i16
  %85 = getelementptr i16, ptr %77, i64 %8
  store i16 %84, ptr %85, align 2, !tbaa !27
  %86 = add i32 %59, 1
  %87 = add i32 %86, %64
  %88 = lshr i32 %87, 1
  %89 = trunc i32 %88 to i16
  %90 = getelementptr inbounds i16, ptr %.0125140, i64 %9
  store i16 %89, ptr %90, align 2, !tbaa !27
  %91 = add i32 %58, 1
  %92 = add i32 %91, %68
  %93 = lshr i32 %92, 1
  %94 = trunc i32 %93 to i16
  %95 = getelementptr i16, ptr %77, i64 %9
  store i16 %94, ptr %95, align 2, !tbaa !27
  %96 = sub i32 %91, %68
  %97 = lshr i32 %96, 1
  %98 = trunc i32 %97 to i16
  %99 = getelementptr inbounds i8, ptr %.0125140, i64 %10
  store i16 %98, ptr %99, align 2, !tbaa !27
  %100 = sub i32 %86, %64
  %101 = lshr i32 %100, 1
  %102 = trunc i32 %101 to i16
  %103 = getelementptr inbounds i16, ptr %.0125140, i64 %12
  store i16 %102, ptr %103, align 2, !tbaa !27
  br label %112

104:                                              ; preds = %13
  %105 = getelementptr inbounds i16, ptr %.0125140, i64 %12
  store i16 0, ptr %105, align 2, !tbaa !27
  %106 = getelementptr inbounds i8, ptr %.0125140, i64 %10
  store i16 0, ptr %106, align 2, !tbaa !27
  %107 = getelementptr i16, ptr %.0125140, i64 %2
  %108 = getelementptr i16, ptr %107, i64 %9
  store i16 0, ptr %108, align 2, !tbaa !27
  %109 = getelementptr inbounds i16, ptr %.0125140, i64 %9
  store i16 0, ptr %109, align 2, !tbaa !27
  %110 = getelementptr i16, ptr %107, i64 %8
  store i16 0, ptr %110, align 2, !tbaa !27
  %111 = getelementptr inbounds i16, ptr %.0125140, i64 %8
  store i16 0, ptr %111, align 2, !tbaa !27
  store i16 0, ptr %107, align 2, !tbaa !27
  store i16 0, ptr %.0125140, align 2, !tbaa !27
  br label %112

112:                                              ; preds = %104, %16
  %113 = getelementptr inbounds nuw i8, ptr %.0141, i64 4
  %114 = getelementptr inbounds nuw i8, ptr %.0125140, i64 2
  %indvars.iv.next = add nuw nsw i64 %indvars.iv, 1
  %exitcond.not = icmp eq i64 %indvars.iv.next, 8
  br i1 %exitcond.not, label %115, label %13, !llvm.loop !54

115:                                              ; preds = %112
  ret void
}